; Function Attrs: mustprogress uwtable
define hidden noundef ptr @_Z34pj_projection_specific_setup_nsperP8PJconsts(ptr noundef %0) local_unnamed_addr #0 {
  %2 = tail call noalias dereferenceable_or_null(104) ptr @calloc(i64 noundef 1, i64 noundef 104) #5
  %3 = icmp eq ptr %2, null
  br i1 %3, label %4, label %6

4:                                                ; preds = %1
  %5 = tail call noundef ptr @_Z21pj_default_destructorP8PJconstsi(ptr noundef %0, i32 noundef 4096)
  br label %9

6:                                                ; preds = %1
  %7 = getelementptr inbounds nuw i8, ptr %0, i64 88
  store ptr %2, ptr %7, align 8, !tbaa !3
  %8 = tail call fastcc noundef ptr @_ZL11nsper_setupP8PJconsts(ptr noundef %0)
  br label %9

9:                                                ; preds = %6, %4
  %.0 = phi ptr [ %5, %4 ], [ %8, %6 ]
  ret ptr %.0
}